target datalayout = "e-m:e-p270:32:32-p271:32:32-p272:64:64-i64:64-i128:128-f80:128-n8:16:32:64-S128"
target triple = "x86_64-unknown-linux-gnu"

; Function Attrs: mustprogress uwtable
define internal noundef i32 @_ZL14getNumericTypeRK11IntPropertyi9UProperty(ptr noundef nonnull align 8 dereferenceable(32) %0, i32 noundef %c, i32 noundef %1) #0 {
entry:
  %.addr = alloca ptr, align 8
  %c.addr = alloca i32, align 4
  %.addr1 = alloca i32, align 4
  %ntv = alloca i32, align 4
  store ptr %0, ptr %.addr, align 8
  store i32 %c, ptr %c.addr, align 4
  store i32 %1, ptr %.addr1, align 4
  %2 = load i32, ptr %c.addr, align 4
  %call = call i32 @u_getMainProperties_75(i32 noundef %2)
  %shr = lshr i32 %call, 6
  store i32 %shr, ptr %ntv, align 4
  %3 = load i32, ptr %ntv, align 4
  %cmp = icmp eq i32 %3, 0
  br i1 %cmp, label %cond.true, label %cond.false

cond.true:                                        ; preds = %entry
  br label %cond.end7

cond.false:                                       ; preds = %entry
  %4 = load i32, ptr %ntv, align 4
  %cmp2 = icmp slt i32 %4, 11
  br i1 %cmp2, label %cond.true3, label %cond.false4

cond.true3:                                       ; preds = %cond.false
  br label %cond.end

cond.false4:                                      ; preds = %cond.false
  %5 = load i32, ptr %ntv, align 4
  %cmp5 = icmp slt i32 %5, 21
  %cond = select i1 %cmp5, i32 2, i32 3
  br label %cond.end

cond.end:                                         ; preds = %cond.false4, %cond.true3
  %cond6 = phi i32 [ 1, %cond.true3 ], [ %cond, %cond.false4 ]
  br label %cond.end7

cond.end7:                                        ; preds = %cond.end, %cond.true
  %cond8 = phi i32 [ 0, %cond.true ], [ %cond6, %cond.end ]
  ret i32 %cond8
}