; Function Attrs: mustprogress uwtable
define internal noundef i32 @_ZL14getNumericTypeRK11IntPropertyi9UProperty(ptr nocapture nonnull readnone align 8 %0, i32 noundef %c, i32 %1) #0 {
entry:
  %call = tail call i32 @u_getMainProperties_75(i32 noundef %c)
  %cmp = icmp ult i32 %call, 64
  %cmp2 = icmp ult i32 %call, 704
  %cmp5 = icmp ult i32 %call, 1344
  %cond = select i1 %cmp5, i32 2, i32 3
  %cond6 = select i1 %cmp2, i32 1, i32 %cond
  %cond8 = select i1 %cmp, i32 0, i32 %cond6
  ret i32 %cond8
}